; Function Attrs: mustprogress nounwind uwtable
define hidden void @_ZN5JVMCI6event4EPKcz(ptr noundef %0, ...) local_unnamed_addr #0 align 2 {
  %2 = alloca [1 x %struct.__va_list_tag], align 16
  call void @llvm.va_start.p0(ptr nonnull %2)
  call void @_ZN5JVMCI4vlogEiPKcP13__va_list_tag(i32 noundef 4, ptr noundef %0, ptr noundef nonnull %2)
  call void @llvm.va_end.p0(ptr nonnull %2)
  call void @llvm.va_start.p0(ptr nonnull %2)
  call void @_ZN5JVMCI6vtraceEiPKcP13__va_list_tag(i32 noundef 4, ptr noundef %0, ptr noundef nonnull %2)
  call void @llvm.va_end.p0(ptr nonnull %2)
  ret void
}